target datalayout = "e-m:e-p270:32:32-p271:32:32-p272:64:64-i64:64-i128:128-f80:128-n8:16:32:64-S128"
target triple = "x86_64-pc-linux-gnu"

%struct.ImGuiTabItem = type <{ i32, i32, i32, i32, float, float, float, float, i32, i16, i16, i8, [3 x i8] }>

; Function Attrs: mustprogress nounwind uwtable
define internal noundef i32 @_ZL27TabItemComparerByBeginOrderPKvS0_(ptr noundef %0, ptr noundef %1) #4 {
  %3 = alloca ptr, align 8
  %4 = alloca ptr, align 8
  %5 = alloca ptr, align 8
  %6 = alloca ptr, align 8
  store ptr %0, ptr %3, align 8, !tbaa !334
  store ptr %1, ptr %4, align 8, !tbaa !334
  call void @llvm.lifetime.start.p0(i64 8, ptr %5) #17
  %7 = load ptr, ptr %3, align 8, !tbaa !334
  store ptr %7, ptr %5, align 8, !tbaa !875
  call void @llvm.lifetime.start.p0(i64 8, ptr %6) #17
  %8 = load ptr, ptr %4, align 8, !tbaa !334
  store ptr %8, ptr %6, align 8, !tbaa !875
  %9 = load ptr, ptr %5, align 8, !tbaa !875
  %10 = getelementptr inbounds nuw %struct.ImGuiTabItem, ptr %9, i32 0, i32 9
  %11 = load i16, ptr %10, align 4, !tbaa !876
  %12 = sext i16 %11 to i32
  %13 = load ptr, ptr %6, align 8, !tbaa !875
  %14 = getelementptr inbounds nuw %struct.ImGuiTabItem, ptr %13, i32 0, i32 9
  %15 = load i16, ptr %14, align 4, !tbaa !876
  %16 = sext i16 %15 to i32
  %17 = sub nsw i32 %12, %16
  call void @llvm.lifetime.end.p0(i64 8, ptr %6) #17
  call void @llvm.lifetime.end.p0(i64 8, ptr %5) #17
  ret i32 %17
}