; Function Attrs: mustprogress nofree norecurse nosync nounwind willreturn memory(argmem: read) uwtable
define internal noundef range(i32 -65535, 65536) i32 @_ZL27TabItemComparerByBeginOrderPKvS0_(ptr noundef readonly captures(none) %0, ptr noundef readonly captures(none) %1) #12 {
  %3 = getelementptr inbounds nuw i8, ptr %0, i64 36
  %4 = load i16, ptr %3, align 4, !tbaa !767
  %5 = sext i16 %4 to i32
  %6 = getelementptr inbounds nuw i8, ptr %1, i64 36
  %7 = load i16, ptr %6, align 4, !tbaa !767
  %8 = sext i16 %7 to i32
  %9 = sub nsw i32 %5, %8
  ret i32 %9
}